ccopy_reg
_reconstructor
p0
(cpandas.core.series
Series
p1
c__builtin__
object
p2
Ntp3
Rp4
(dp5
S'_metadata'
p6
(lp7
S'name'
p8
asS'_data'
p9
g0
(cpandas.core.internals
SingleBlockManager
p10
g2
Ntp11
Rp12
((lp13
cpandas.core.indexes.base
_new_Index
p14
(cpandas.core.indexes.base
Index
p15
(dp16
S'data'
p17
cnumpy.core.multiarray
_reconstruct
p18
(cnumpy
ndarray
p19
(I0
tp20
S'b'
p21
tp22
Rp23
(I1
(I40
tp24
cnumpy
dtype
p25
(S'O8'
p26
I0
I1
tp27
Rp28
(I3
S'|'
p29
NNNI-1
I-1
I63
tp30
bI00
(lp31
S'Stop1'
p32
aS'Stop1to2'
p33
aS'Stop2'
p34
aS'Stop2to3'
p35
aS'Stop3'
p36
aS'Stop3to4'
p37
aS'Stop4'
p38
aS'Stop4to5'
p39
aS'Stop5'
p40
aS'Stop5to6'
p41
aS'Stop6'
p42
aS'Stop6to7'
p43
aS'Stop7'
p44
aS'Stop7to8'
p45
aS'Stop8'
p46
aS'Stop8to9'
p47
aS'Stop9'
p48
aS'Stop9to10'
p49
aS'Stop10'
p50
aS'Stop10to11'
p51
aS'Stop11'
p52
aS'Stop11to12'
p53
aS'Stop12'
p54
aS'Stop12to13'
p55
aS'Stop13'
p56
aS'Stop13to14'
p57
aS'Stop14'
p58
aS'Stop14to15'
p59
aS'Stop15'
p60
aS'Stop15to16'
p61
aS'Stop16'
p62
aS'Stop16to17'
p63
aS'Stop17'
p64
aS'Stop17to18'
p65
aS'Stop18'
p66
aS'Stop18to19'
p67
aS'Stop19'
p68
aS'Stop19to20'
p69
aS'Stop20'
p70
aS'Stop20to21'
p71
atp72
bsg8
Nstp73
Rp74
a(lp75
g18
(g19
(I0
tp76
g21
tp77
Rp78
(I1
(I40
tp79
g25
(S'f8'
p80
I0
I1
tp81
Rp82
(I3
S'<'
p83
NNNI-1
I-1
I0
tp84
bI00
S'\xb5q\x81\x10\x97}M@\\Uip\xc8od@\xf2\x07\x91\xbc\x9alI@`\xb7\x07\xce\x12\x82]@\x01b\xbb\x98J\x19D@\xc0H\x80\xb6\x91mX@\x18)r.4\x85C@\xdd\xbd\x9b\r\xf5\xafQ@L6\xddy4\x03F@\xb2\xa2!\xe0\xcc\xa2V@\xafg\xb5D\xa6\x12F@h\xb6V\xc8F\xad[@\x1fp\xa0\xdd\xef\xdbG@{c\x0c1d)S@\x90u\x95m\xb3o7@{\xd3\x96\x13C\x13W@"\xb3\xf7\xdf\xdb\xeb?@@W\xe0L\xb2\xfeE@\xc5\xe5\xd7\x12.\x19Q@\x98G\x1d\xdc\xf8\xbdD@\x053\xaf\x0fw\x17E@_\x1cl\xe59\x0cb@\xc8\x9d\xec\xfd\xa6\xebE@\x9fR\x847\xbcIh@\xb2Z\xff\x19\x86zB@\x80dL\xd6\x02nP@>=\x8d\x13Q\x9dA@\xf6\x1b\xca\xc2\xb1\x03`@C6T\x0b\x13=W@e\x8f\xa4\xbd\xdd\x17`@?\x03\xea\x8e\xcecF@\xd6T\xf2\xb5\xfc\x0e[@\xb8\xf0@\xb9\xd1\x1fC@E\x83k\x1aO\x84c@0\xa3\rs\xe8\x98E@bX{H\xd4\x98s@\x8ah\x0e\n\x14\xf3B@i!*\x80Dl[@\x01VrD\xf3\x93A@(?\xb6\x16\xe8\x82e@'
p85
tp86
ba(lp87
g14
(g15
(dp88
g17
g18
(g19
(I0
tp89
g21
tp90
Rp91
(I1
(I40
tp92
g28
I00
(lp93
g32
ag33
ag34
ag35
ag36
ag37
ag38
ag39
ag40
ag41
ag42
ag43
ag44
ag45
ag46
ag47
ag48
ag49
ag50
ag51
ag52
ag53
ag54
ag55
ag56
ag57
ag58
ag59
ag60
ag61
ag62
ag63
ag64
ag65
ag66
ag67
ag68
ag69
ag70
ag71
atp94
bsg8
Nstp95
Rp96
a(dp97
S'0.14.1'
p98
(dp99
S'axes'
p100
g13
sS'blocks'
p101
(lp102
(dp103
S'mgr_locs'
p104
c__builtin__
slice
p105
(I0
I40
I1
tp106
Rp107
sS'values'
p108
g78
sasstp109
bsS'_typ'
p110
S'series'
p111
sg8
Nsb.