ccopy_reg
_reconstructor
p0
(cpandas.core.frame
DataFrame
p1
c__builtin__
object
p2
Ntp3
Rp4
(dp5
S'_metadata'
p6
(lp7
sS'_typ'
p8
S'dataframe'
p9
sS'_data'
p10
g0
(cpandas.core.internals
BlockManager
p11
g2
Ntp12
Rp13
((lp14
cpandas.core.indexes.base
_new_Index
p15
(cpandas.core.indexes.base
Index
p16
(dp17
S'data'
p18
cnumpy.core.multiarray
_reconstruct
p19
(cnumpy
ndarray
p20
(I0
tp21
S'b'
p22
tp23
Rp24
(I1
(I40
tp25
cnumpy
dtype
p26
(S'O8'
p27
I0
I1
tp28
Rp29
(I3
S'|'
p30
NNNI-1
I-1
I63
tp31
bI00
(lp32
S'Stop1'
p33
aS'Stop1to2'
p34
aS'Stop2'
p35
aS'Stop2to3'
p36
aS'Stop3'
p37
aS'Stop3to4'
p38
aS'Stop4'
p39
aS'Stop4to5'
p40
aS'Stop5'
p41
aS'Stop5to6'
p42
aS'Stop6'
p43
aS'Stop6to7'
p44
aS'Stop7'
p45
aS'Stop7to8'
p46
aS'Stop8'
p47
aS'Stop8to9'
p48
aS'Stop9'
p49
aS'Stop9to10'
p50
aS'Stop10'
p51
aS'Stop10to11'
p52
aS'Stop11'
p53
aS'Stop11to12'
p54
aS'Stop12'
p55
aS'Stop12to13'
p56
aS'Stop13'
p57
aS'Stop13to14'
p58
aS'Stop14'
p59
aS'Stop14to15'
p60
aS'Stop15'
p61
aS'Stop15to16'
p62
aS'Stop16'
p63
aS'Stop16to17'
p64
aS'Stop17'
p65
aS'Stop17to18'
p66
aS'Stop18'
p67
aS'Stop18to19'
p68
aS'Stop19'
p69
aS'Stop19to20'
p70
aS'Stop20'
p71
aS'Stop20to21'
p72
atp73
bsS'name'
p74
Nstp75
Rp76
ag15
(g16
(dp77
g18
g19
(g20
(I0
tp78
g22
tp79
Rp80
(I1
(I2
tp81
g29
I00
(lp82
S'series'
p83
aS'residual'
p84
atp85
bsg74
Nstp86
Rp87
a(lp88
g19
(g20
(I0
tp89
g22
tp90
Rp91
(I1
(I40
I2
tp92
g29
I00
(lp93
(I0
I0
I0
tp94
a(I0
I0
I0
tp95
a(I0
I1
I1
tp96
a(I0
I0
I0
tp97
a(I0
I1
I1
tp98
a(I0
I0
I0
tp99
a(I0
I0
I0
tp100
a(I1
I0
I1
tp101
a(I4
I0
I0
tp102
a(I0
I0
I0
tp103
a(I3
I0
I4
tp104
a(I0
I0
I0
tp105
a(I0
I1
I1
tp106
a(I0
I0
I0
tp107
a(I4
I0
I0
tp108
a(I4
I0
I4
tp109
a(I0
I1
I1
tp110
a(I1
I0
I1
tp111
a(I2
I0
I2
tp112
a(I0
I0
I0
tp113
a(I0
I1
I1
tp114
a(I1
I0
I1
tp115
a(I2
I0
I3
tp116
a(I1
I0
I1
tp117
a(I0
I1
I1
tp118
a(I1
I0
I3
tp119
a(I0
I0
I0
tp120
a(I1
I0
I1
tp121
a(I4
I0
I4
tp122
a(I0
I0
I0
tp123
a(I3
I0
I4
tp124
a(I2
I0
I3
tp125
a(I4
I0
I0
tp126
a(I4
I0
I0
tp127
a(I4
I0
I0
tp128
a(I4
I0
I0
tp129
a(I0
I0
I0
tp130
a(I0
I0
I0
tp131
a(I2
I0
I0
tp132
a(I0
I1
I1
tp133
a(I0
I0
I0
tp134
a(I3
I0
I0
tp135
a(I0
I0
I0
tp136
a(I0
I0
I0
tp137
a(I0
I0
I0
tp138
a(I0
I0
I0
tp139
a(I0
I0
I0
tp140
a(I3
I0
I0
tp141
a(I0
I0
I0
tp142
a(I3
I0
I0
tp143
a(I1
I0
I3
tp144
a(I0
I0
I0
tp145
a(I0
I0
I0
tp146
a(I0
I0
I0
tp147
a(I3
I1
I1
tp148
a(I3
I0
I0
tp149
a(I0
I1
I1
tp150
a(I2
I0
I4
tp151
a(I4
I0
I0
tp152
a(I0
I0
I0
tp153
a(I0
I1
I1
tp154
a(I0
I0
I0
tp155
a(I1
I0
I2
tp156
a(I1
I0
I1
tp157
a(I0
I1
I1
tp158
a(I0
I0
I0
tp159
a(I3
I0
I0
tp160
a(I2
I0
I2
tp161
a(I0
I1
I1
tp162
a(I0
I1
I1
tp163
a(I0
I0
I0
tp164
a(I2
I0
I2
tp165
a(I0
I1
I1
tp166
a(I1
I0
I1
tp167
a(I0
I1
I1
tp168
a(I1
I0
I1
tp169
a(I0
I1
I1
tp170
a(I1
I0
I1
tp171
a(I0
I1
I1
tp172
a(I0
I0
I0
tp173
atp174
ba(lp175
g15
(g16
(dp176
g18
g19
(g20
(I0
tp177
g22
tp178
Rp179
(I1
(I40
tp180
g29
I00
(lp181
g33
ag34
ag35
ag36
ag37
ag38
ag39
ag40
ag41
ag42
ag43
ag44
ag45
ag46
ag47
ag48
ag49
ag50
ag51
ag52
ag53
ag54
ag55
ag56
ag57
ag58
ag59
ag60
ag61
ag62
ag63
ag64
ag65
ag66
ag67
ag68
ag69
ag70
ag71
ag72
atp182
bsg74
Nstp183
Rp184
a(dp185
S'0.14.1'
p186
(dp187
S'axes'
p188
g14
sS'blocks'
p189
(lp190
(dp191
S'mgr_locs'
p192
c__builtin__
slice
p193
(I0
I40
I1
tp194
Rp195
sS'values'
p196
g91
sasstp197
bsb.